; Function Attrs: nounwind uwtable
define void @Abc_NtkBalanceDetach(ptr noundef readonly captures(none) %0) local_unnamed_addr #0 {
  %2 = getelementptr inbounds nuw i8, ptr %0, i64 32
  %3 = load ptr, ptr %2, align 8, !tbaa !3
  %4 = getelementptr i8, ptr %3, i64 4
  %.val14 = load i32, ptr %4, align 4, !tbaa !24
  %5 = icmp sgt i32 %.val14, 0
  br i1 %5, label %.lr.ph, label %.critedge

.lr.ph:                                           ; preds = %1, %21
  %6 = phi ptr [ %22, %21 ], [ %3, %1 ]
  %indvars.iv = phi i64 [ %indvars.iv.next, %21 ], [ 0, %1 ]
  %7 = getelementptr i8, ptr %6, i64 8
  %.val13.val = load ptr, ptr %7, align 8, !tbaa !26
  %8 = getelementptr inbounds nuw ptr, ptr %.val13.val, i64 %indvars.iv
  %9 = load ptr, ptr %8, align 8, !tbaa !27
  %10 = icmp eq ptr %9, null
  br i1 %10, label %21, label %11

11:                                               ; preds = %.lr.ph
  %12 = getelementptr i8, ptr %9, i64 20
  %.val12 = load i32, ptr %12, align 4
  %13 = and i32 %.val12, 15
  %.not = icmp eq i32 %13, 7
  br i1 %.not, label %14, label %21

14:                                               ; preds = %11
  %15 = getelementptr inbounds nuw i8, ptr %9, i64 64
  %16 = load ptr, ptr %15, align 8, !tbaa !34
  %.not11 = icmp eq ptr %16, null
  br i1 %.not11, label %21, label %17

17:                                               ; preds = %14
  %18 = getelementptr inbounds nuw i8, ptr %16, i64 8
  %19 = load ptr, ptr %18, align 8, !tbaa !26
  %.not.i = icmp eq ptr %19, null
  br i1 %.not.i, label %Vec_PtrFree.exit, label %20

20:                                               ; preds = %17
  tail call void @free(ptr noundef nonnull %19) #13
  br label %Vec_PtrFree.exit

Vec_PtrFree.exit:                                 ; preds = %17, %20
  tail call void @free(ptr noundef nonnull %16) #13
  store ptr null, ptr %15, align 8, !tbaa !34
  %.pre = load ptr, ptr %2, align 8, !tbaa !3
  br label %21

21:                                               ; preds = %11, %.lr.ph, %Vec_PtrFree.exit, %14
  %22 = phi ptr [ %6, %11 ], [ %6, %.lr.ph ], [ %.pre, %Vec_PtrFree.exit ], [ %6, %14 ]
  %indvars.iv.next = add nuw nsw i64 %indvars.iv, 1
  %23 = getelementptr i8, ptr %22, i64 4
  %.val = load i32, ptr %23, align 4, !tbaa !24
  %24 = sext i32 %.val to i64
  %25 = icmp slt i64 %indvars.iv.next, %24
  br i1 %25, label %.lr.ph, label %.critedge, !llvm.loop !65

.critedge:                                        ; preds = %21, %1
  ret void
}